; Function Attrs: mustprogress nofree norecurse nosync nounwind willreturn memory(argmem: readwrite) uwtable
define internal noundef zeroext i1 @_ZNSt17_Function_handlerIFSt8optionalIN32pxrInternal_v0_24__pxrReserved__7SdfPathEENS1_13SdfListOpTypeERKS2_EZNS1_L32_ComposeSiteListOpWithSourceInfoIS2_EEvRKNS1_8TfRefPtrINS1_13PcpLayerStackEEES6_RKNS1_7TfTokenEPSt6vectorIT_SaISI_EEPSH_INS1_10PcpArcInfoESaISM_EEEUlS4_S6_E_E10_M_managerERSt9_Any_dataRKSS_St18_Manager_operation(ptr noundef nonnull writeonly align 8 captures(none) dereferenceable(16) %0, ptr noundef nonnull align 8 dereferenceable(16) %1, i32 noundef %2) #16 align 2 personality ptr @__gxx_personality_v0 {
  switch i32 %2, label %_ZNSt14_Function_base13_Base_managerIZN32pxrInternal_v0_24__pxrReserved__L32_ComposeSiteListOpWithSourceInfoINS1_7SdfPathEEEvRKNS1_8TfRefPtrINS1_13PcpLayerStackEEERKS3_RKNS1_7TfTokenEPSt6vectorIT_SaISF_EEPSE_INS1_10PcpArcInfoESaISJ_EEEUlNS1_13SdfListOpTypeESA_E_E10_M_managerERSt9_Any_dataRKSQ_St18_Manager_operation.exit [
    i32 0, label %4
    i32 1, label %5
    i32 2, label %6
  ]

4:                                                ; preds = %3
  store ptr @_ZTIZN32pxrInternal_v0_24__pxrReserved__L32_ComposeSiteListOpWithSourceInfoINS_7SdfPathEEEvRKNS_8TfRefPtrINS_13PcpLayerStackEEERKS1_RKNS_7TfTokenEPSt6vectorIT_SaISD_EEPSC_INS_10PcpArcInfoESaISH_EEEUlNS_13SdfListOpTypeES8_E_, ptr %0, align 8
  br label %_ZNSt14_Function_base13_Base_managerIZN32pxrInternal_v0_24__pxrReserved__L32_ComposeSiteListOpWithSourceInfoINS1_7SdfPathEEEvRKNS1_8TfRefPtrINS1_13PcpLayerStackEEERKS3_RKNS1_7TfTokenEPSt6vectorIT_SaISF_EEPSE_INS1_10PcpArcInfoESaISJ_EEEUlNS1_13SdfListOpTypeESA_E_E10_M_managerERSt9_Any_dataRKSQ_St18_Manager_operation.exit

5:                                                ; preds = %3
  store ptr %1, ptr %0, align 8
  br label %_ZNSt14_Function_base13_Base_managerIZN32pxrInternal_v0_24__pxrReserved__L32_ComposeSiteListOpWithSourceInfoINS1_7SdfPathEEEvRKNS1_8TfRefPtrINS1_13PcpLayerStackEEERKS3_RKNS1_7TfTokenEPSt6vectorIT_SaISF_EEPSE_INS1_10PcpArcInfoESaISJ_EEEUlNS1_13SdfListOpTypeESA_E_E10_M_managerERSt9_Any_dataRKSQ_St18_Manager_operation.exit

6:                                                ; preds = %3
  tail call void @llvm.memcpy.p0.p0.i64(ptr noundef nonnull align 8 dereferenceable(16) %0, ptr noundef nonnull readonly align 8 dereferenceable(16) %1, i64 16, i1 false)
  br label %_ZNSt14_Function_base13_Base_managerIZN32pxrInternal_v0_24__pxrReserved__L32_ComposeSiteListOpWithSourceInfoINS1_7SdfPathEEEvRKNS1_8TfRefPtrINS1_13PcpLayerStackEEERKS3_RKNS1_7TfTokenEPSt6vectorIT_SaISF_EEPSE_INS1_10PcpArcInfoESaISJ_EEEUlNS1_13SdfListOpTypeESA_E_E10_M_managerERSt9_Any_dataRKSQ_St18_Manager_operation.exit

_ZNSt14_Function_base13_Base_managerIZN32pxrInternal_v0_24__pxrReserved__L32_ComposeSiteListOpWithSourceInfoINS1_7SdfPathEEEvRKNS1_8TfRefPtrINS1_13PcpLayerStackEEERKS3_RKNS1_7TfTokenEPSt6vectorIT_SaISF_EEPSE_INS1_10PcpArcInfoESaISJ_EEEUlNS1_13SdfListOpTypeESA_E_E10_M_managerERSt9_Any_dataRKSQ_St18_Manager_operation.exit: ; preds = %3, %6, %5, %4
  ret i1 false
}